target datalayout = "e-m:e-p270:32:32-p271:32:32-p272:64:64-i64:64-i128:128-f80:128-n8:16:32:64-S128"
target triple = "x86_64-pc-linux-gnu"

%struct.SlruSharedData = type { i32, ptr, ptr, ptr, ptr, ptr, ptr, ptr, ptr, ptr, i32, %struct.pg_atomic_uint64, i32 }
%struct.pg_atomic_uint64 = type { i64 }
%union.LWLockPadded = type { %struct.LWLock, [112 x i8] }
%struct.LWLock = type { i16, %struct.pg_atomic_uint32, %struct.proclist_head }
%struct.pg_atomic_uint32 = type { i32 }
%struct.proclist_head = type { i32, i32 }
%struct.SlruCtlData = type { ptr, i16, i8, i32, ptr, [64 x i8] }

@.str.1 = private unnamed_addr constant [55 x i8] c"could not truncate directory \22%s\22: apparent wraparound\00", align 1
@.str.2 = private unnamed_addr constant [7 x i8] c"slru.c\00", align 1
@__func__.SimpleLruTruncate = private unnamed_addr constant [18 x i8] c"SimpleLruTruncate\00", align 1

; Function Attrs: inlinehint nounwind uwtable
define internal i64 @pg_atomic_read_u64_impl(ptr noundef %0) #4 {
  %2 = alloca ptr, align 8
  store ptr %0, ptr %2, align 8
  %3 = load ptr, ptr %2, align 8
  %4 = getelementptr inbounds nuw %struct.pg_atomic_uint64, ptr %3, i32 0, i32 0
  %5 = load volatile i64, ptr %4, align 8
  ret i64 %5
}

; Function Attrs: inlinehint nounwind uwtable
define internal i64 @pg_atomic_read_u64(ptr noundef %0) #4 {
  %2 = alloca ptr, align 8
  store ptr %0, ptr %2, align 8
  %3 = load ptr, ptr %2, align 8
  %4 = call i64 @pg_atomic_read_u64_impl(ptr noundef %3)
  ret i64 %4
}

; Function Attrs: nounwind uwtable
define dso_local void @SimpleLruTruncate(ptr noundef %0, i64 noundef %1) #0 {
  %3 = alloca ptr, align 8
  %4 = alloca i64, align 8
  %5 = alloca ptr, align 8
  %6 = alloca i32, align 4
  %7 = alloca i32, align 4
  %8 = alloca i32, align 4
  %9 = alloca i32, align 4
  store ptr %0, ptr %3, align 8
  store i64 %1, ptr %4, align 8
  call void @llvm.lifetime.start.p0(i64 8, ptr %5) #9
  %10 = load ptr, ptr %3, align 8
  %11 = getelementptr inbounds nuw %struct.SlruCtlData, ptr %10, i32 0, i32 0
  %12 = load ptr, ptr %11, align 8
  store ptr %12, ptr %5, align 8
  call void @llvm.lifetime.start.p0(i64 4, ptr %6) #9
  %13 = load ptr, ptr %5, align 8
  %14 = getelementptr inbounds nuw %struct.SlruSharedData, ptr %13, i32 0, i32 12
  %15 = load i32, ptr %14, align 8
  call void @pgstat_count_slru_truncate(i32 noundef %15)
  br label %16

16:                                               ; preds = %151, %2
  %17 = load ptr, ptr %3, align 8
  %18 = getelementptr inbounds nuw %struct.SlruCtlData, ptr %17, i32 0, i32 4
  %19 = load ptr, ptr %18, align 8
  %20 = load ptr, ptr %5, align 8
  %21 = getelementptr inbounds nuw %struct.SlruSharedData, ptr %20, i32 0, i32 11
  %22 = call i64 @pg_atomic_read_u64(ptr noundef %21)
  %23 = load i64, ptr %4, align 8
  %24 = call zeroext i1 %19(i64 noundef %22, i64 noundef %23)
  br i1 %24, label %25, label %39

25:                                               ; preds = %16
  br label %26

26:                                               ; preds = %25
  br i1 false, label %27, label %29

27:                                               ; preds = %26
  %28 = call zeroext i1 @errstart_cold(i32 noundef 15, ptr noundef null) #11
  br i1 %28, label %31, label %36

29:                                               ; preds = %26
  %30 = call zeroext i1 @errstart(i32 noundef 15, ptr noundef null)
  br i1 %30, label %31, label %36

31:                                               ; preds = %29, %27
  %32 = load ptr, ptr %3, align 8
  %33 = getelementptr inbounds nuw %struct.SlruCtlData, ptr %32, i32 0, i32 5
  %34 = getelementptr inbounds [64 x i8], ptr %33, i64 0, i64 0
  %35 = call i32 (ptr, ...) @errmsg(ptr noundef @.str.1, ptr noundef %34)
  call void @errfinish(ptr noundef @.str.2, i32 noundef 1435, ptr noundef @__func__.SimpleLruTruncate)
  br label %36

36:                                               ; preds = %31, %29, %27
  br label %37

37:                                               ; preds = %36
  br label %38

38:                                               ; preds = %37
  store i32 1, ptr %7, align 4
  br label %162

39:                                               ; preds = %16
  store i32 0, ptr %6, align 4
  %40 = load ptr, ptr %5, align 8
  %41 = getelementptr inbounds nuw %struct.SlruSharedData, ptr %40, i32 0, i32 7
  %42 = load ptr, ptr %41, align 8
  %43 = load i32, ptr %6, align 4
  %44 = sext i32 %43 to i64
  %45 = getelementptr inbounds %union.LWLockPadded, ptr %42, i64 %44
  %46 = call zeroext i1 @LWLockAcquire(ptr noundef %45, i32 noundef 0)
  call void @llvm.lifetime.start.p0(i64 4, ptr %8) #9
  store i32 0, ptr %8, align 4
  br label %47

47:                                               ; preds = %148, %39
  %48 = load i32, ptr %8, align 4
  %49 = load ptr, ptr %5, align 8
  %50 = getelementptr inbounds nuw %struct.SlruSharedData, ptr %49, i32 0, i32 0
  %51 = load i32, ptr %50, align 8
  %52 = icmp slt i32 %48, %51
  br i1 %52, label %54, label %53

53:                                               ; preds = %47
  store i32 5, ptr %7, align 4
  br label %151

54:                                               ; preds = %47
  call void @llvm.lifetime.start.p0(i64 4, ptr %9) #9
  %55 = load i32, ptr %8, align 4
  %56 = ashr i32 %55, 4
  store i32 %56, ptr %9, align 4
  %57 = load i32, ptr %9, align 4
  %58 = load i32, ptr %6, align 4
  %59 = icmp ne i32 %57, %58
  br i1 %59, label %60, label %75

60:                                               ; preds = %54
  %61 = load ptr, ptr %5, align 8
  %62 = getelementptr inbounds nuw %struct.SlruSharedData, ptr %61, i32 0, i32 7
  %63 = load ptr, ptr %62, align 8
  %64 = load i32, ptr %6, align 4
  %65 = sext i32 %64 to i64
  %66 = getelementptr inbounds %union.LWLockPadded, ptr %63, i64 %65
  call void @LWLockRelease(ptr noundef %66)
  %67 = load ptr, ptr %5, align 8
  %68 = getelementptr inbounds nuw %struct.SlruSharedData, ptr %67, i32 0, i32 7
  %69 = load ptr, ptr %68, align 8
  %70 = load i32, ptr %9, align 4
  %71 = sext i32 %70 to i64
  %72 = getelementptr inbounds %union.LWLockPadded, ptr %69, i64 %71
  %73 = call zeroext i1 @LWLockAcquire(ptr noundef %72, i32 noundef 0)
  %74 = load i32, ptr %9, align 4
  store i32 %74, ptr %6, align 4
  br label %75

75:                                               ; preds = %60, %54
  %76 = load ptr, ptr %5, align 8
  %77 = getelementptr inbounds nuw %struct.SlruSharedData, ptr %76, i32 0, i32 2
  %78 = load ptr, ptr %77, align 8
  %79 = load i32, ptr %8, align 4
  %80 = sext i32 %79 to i64
  %81 = getelementptr inbounds i32, ptr %78, i64 %80
  %82 = load i32, ptr %81, align 4
  %83 = icmp eq i32 %82, 0
  br i1 %83, label %84, label %85

84:                                               ; preds = %75
  store i32 7, ptr %7, align 4
  br label %146

85:                                               ; preds = %75
  %86 = load ptr, ptr %3, align 8
  %87 = getelementptr inbounds nuw %struct.SlruCtlData, ptr %86, i32 0, i32 4
  %88 = load ptr, ptr %87, align 8
  %89 = load ptr, ptr %5, align 8
  %90 = getelementptr inbounds nuw %struct.SlruSharedData, ptr %89, i32 0, i32 4
  %91 = load ptr, ptr %90, align 8
  %92 = load i32, ptr %8, align 4
  %93 = sext i32 %92 to i64
  %94 = getelementptr inbounds i64, ptr %91, i64 %93
  %95 = load i64, ptr %94, align 8
  %96 = load i64, ptr %4, align 8
  %97 = call zeroext i1 %88(i64 noundef %95, i64 noundef %96)
  br i1 %97, label %99, label %98

98:                                               ; preds = %85
  store i32 7, ptr %7, align 4
  br label %146

99:                                               ; preds = %85
  %100 = load ptr, ptr %5, align 8
  %101 = getelementptr inbounds nuw %struct.SlruSharedData, ptr %100, i32 0, i32 2
  %102 = load ptr, ptr %101, align 8
  %103 = load i32, ptr %8, align 4
  %104 = sext i32 %103 to i64
  %105 = getelementptr inbounds i32, ptr %102, i64 %104
  %106 = load i32, ptr %105, align 4
  %107 = icmp eq i32 %106, 2
  br i1 %107, label %108, label %124

108:                                              ; preds = %99
  %109 = load ptr, ptr %5, align 8
  %110 = getelementptr inbounds nuw %struct.SlruSharedData, ptr %109, i32 0, i32 3
  %111 = load ptr, ptr %110, align 8
  %112 = load i32, ptr %8, align 4
  %113 = sext i32 %112 to i64
  %114 = getelementptr inbounds i8, ptr %111, i64 %113
  %115 = load i8, ptr %114, align 1, !range !4, !noundef !5
  %116 = trunc i8 %115 to i1
  br i1 %116, label %124, label %117

117:                                              ; preds = %108
  %118 = load ptr, ptr %5, align 8
  %119 = getelementptr inbounds nuw %struct.SlruSharedData, ptr %118, i32 0, i32 2
  %120 = load ptr, ptr %119, align 8
  %121 = load i32, ptr %8, align 4
  %122 = sext i32 %121 to i64
  %123 = getelementptr inbounds i32, ptr %120, i64 %122
  store i32 0, ptr %123, align 4
  store i32 7, ptr %7, align 4
  br label %146

124:                                              ; preds = %108, %99
  %125 = load ptr, ptr %5, align 8
  %126 = getelementptr inbounds nuw %struct.SlruSharedData, ptr %125, i32 0, i32 2
  %127 = load ptr, ptr %126, align 8
  %128 = load i32, ptr %8, align 4
  %129 = sext i32 %128 to i64
  %130 = getelementptr inbounds i32, ptr %127, i64 %129
  %131 = load i32, ptr %130, align 4
  %132 = icmp eq i32 %131, 2
  br i1 %132, label %133, label %136

133:                                              ; preds = %124
  %134 = load ptr, ptr %3, align 8
  %135 = load i32, ptr %8, align 4
  call void @SlruInternalWritePage(ptr noundef %134, i32 noundef %135, ptr noundef null)
  br label %139

136:                                              ; preds = %124
  %137 = load ptr, ptr %3, align 8
  %138 = load i32, ptr %8, align 4
  call void @SimpleLruWaitIO(ptr noundef %137, i32 noundef %138)
  br label %139

139:                                              ; preds = %136, %133
  %140 = load ptr, ptr %5, align 8
  %141 = getelementptr inbounds nuw %struct.SlruSharedData, ptr %140, i32 0, i32 7
  %142 = load ptr, ptr %141, align 8
  %143 = load i32, ptr %6, align 4
  %144 = sext i32 %143 to i64
  %145 = getelementptr inbounds %union.LWLockPadded, ptr %142, i64 %144
  call void @LWLockRelease(ptr noundef %145)
  store i32 2, ptr %7, align 4
  br label %146

146:                                              ; preds = %139, %117, %98, %84
  call void @llvm.lifetime.end.p0(i64 4, ptr %9) #9
  %147 = load i32, ptr %7, align 4
  switch i32 %147, label %151 [
    i32 7, label %148
  ]

148:                                              ; preds = %146
  %149 = load i32, ptr %8, align 4
  %150 = add i32 %149, 1
  store i32 %150, ptr %8, align 4
  br label %47, !llvm.loop !19

151:                                              ; preds = %146, %53
  call void @llvm.lifetime.end.p0(i64 4, ptr %8) #9
  %152 = load i32, ptr %7, align 4
  switch i32 %152, label %165 [
    i32 5, label %153
    i32 2, label %16
  ]

153:                                              ; preds = %151
  %154 = load ptr, ptr %5, align 8
  %155 = getelementptr inbounds nuw %struct.SlruSharedData, ptr %154, i32 0, i32 7
  %156 = load ptr, ptr %155, align 8
  %157 = load i32, ptr %6, align 4
  %158 = sext i32 %157 to i64
  %159 = getelementptr inbounds %union.LWLockPadded, ptr %156, i64 %158
  call void @LWLockRelease(ptr noundef %159)
  %160 = load ptr, ptr %3, align 8
  %161 = call zeroext i1 @SlruScanDirectory(ptr noundef %160, ptr noundef @SlruScanDirCbDeleteCutoff, ptr noundef %4)
  store i32 0, ptr %7, align 4
  br label %162

162:                                              ; preds = %153, %38
  call void @llvm.lifetime.end.p0(i64 4, ptr %6) #9
  call void @llvm.lifetime.end.p0(i64 8, ptr %5) #9
  %163 = load i32, ptr %7, align 4
  switch i32 %163, label %165 [
    i32 0, label %164
    i32 1, label %164
  ]

164:                                              ; preds = %162, %162
  ret void

165:                                              ; preds = %162, %151
  unreachable
}