; Function Attrs: nounwind uwtable
define dso_local void @SimpleLruTruncate(ptr noundef %0, i64 noundef %1) local_unnamed_addr #3 {
  %3 = alloca i64, align 8
  store i64 %1, ptr %3, align 8
  %4 = load ptr, ptr %0, align 8
  %5 = getelementptr inbounds nuw i8, ptr %4, i64 96
  %6 = load i32, ptr %5, align 8
  tail call void @pgstat_count_slru_truncate(i32 noundef %6) #15
  %7 = getelementptr inbounds nuw i8, ptr %0, i64 16
  %8 = getelementptr inbounds nuw i8, ptr %4, i64 88
  %9 = load ptr, ptr %7, align 8
  %10 = load volatile i64, ptr %8, align 8
  %11 = tail call zeroext i1 %9(i64 noundef %10, i64 noundef %1) #15
  br i1 %11, label %._crit_edge68, label %.lr.ph67

.lr.ph67:                                         ; preds = %2
  %12 = getelementptr inbounds nuw i8, ptr %4, i64 56
  %13 = getelementptr inbounds nuw i8, ptr %4, i64 16
  %14 = getelementptr inbounds nuw i8, ptr %4, i64 32
  %15 = getelementptr inbounds nuw i8, ptr %4, i64 24
  br label %20

._crit_edge68:                                    ; preds = %63, %2
  %16 = tail call zeroext i1 @errstart(i32 noundef 15, ptr noundef null) #15
  br i1 %16, label %17, label %74

17:                                               ; preds = %._crit_edge68
  %18 = getelementptr inbounds nuw i8, ptr %0, i64 24
  %19 = tail call i32 (ptr, ...) @errmsg(ptr noundef nonnull @.str.1, ptr noundef nonnull %18) #15
  tail call void @errfinish(ptr noundef nonnull @.str.2, i32 noundef 1435, ptr noundef nonnull @__func__.SimpleLruTruncate) #15
  br label %74

20:                                               ; preds = %.lr.ph67, %63
  %21 = load ptr, ptr %12, align 8
  %22 = tail call zeroext i1 @LWLockAcquire(ptr noundef %21, i32 noundef 0) #15
  %23 = load i32, ptr %4, align 8
  %24 = icmp sgt i32 %23, 0
  br i1 %24, label %.lr.ph, label %._crit_edge

.lr.ph:                                           ; preds = %20, %59
  %indvars.iv = phi i64 [ %indvars.iv.next, %59 ], [ 0, %20 ]
  %.061 = phi i32 [ %.2, %59 ], [ 0, %20 ]
  %25 = trunc nuw nsw i64 %indvars.iv to i32
  %26 = lshr i32 %25, 4
  %.not = icmp eq i32 %26, %.061
  br i1 %.not, label %35, label %27

27:                                               ; preds = %.lr.ph
  %28 = load ptr, ptr %12, align 8
  %29 = zext nneg i32 %.061 to i64
  %30 = getelementptr inbounds nuw %union.LWLockPadded, ptr %28, i64 %29
  tail call void @LWLockRelease(ptr noundef %30) #15
  %31 = load ptr, ptr %12, align 8
  %32 = zext nneg i32 %26 to i64
  %33 = getelementptr inbounds nuw %union.LWLockPadded, ptr %31, i64 %32
  %34 = tail call zeroext i1 @LWLockAcquire(ptr noundef %33, i32 noundef 0) #15
  br label %35

35:                                               ; preds = %27, %.lr.ph
  %.2 = phi i32 [ %26, %27 ], [ %.061, %.lr.ph ]
  %36 = load ptr, ptr %13, align 8
  %37 = getelementptr inbounds nuw i32, ptr %36, i64 %indvars.iv
  %38 = load i32, ptr %37, align 4
  %39 = icmp eq i32 %38, 0
  br i1 %39, label %59, label %40

40:                                               ; preds = %35
  %41 = load ptr, ptr %7, align 8
  %42 = load ptr, ptr %14, align 8
  %43 = getelementptr inbounds nuw i64, ptr %42, i64 %indvars.iv
  %44 = load i64, ptr %43, align 8
  %45 = tail call zeroext i1 %41(i64 noundef %44, i64 noundef %1) #15
  br i1 %45, label %46, label %59

46:                                               ; preds = %40
  %47 = load ptr, ptr %13, align 8
  %48 = getelementptr inbounds nuw i32, ptr %47, i64 %indvars.iv
  %49 = load i32, ptr %48, align 4
  %50 = icmp eq i32 %49, 2
  br i1 %50, label %51, label %58

51:                                               ; preds = %46
  %52 = load ptr, ptr %15, align 8
  %53 = getelementptr inbounds nuw i8, ptr %52, i64 %indvars.iv
  %54 = load i8, ptr %53, align 1, !range !4, !noundef !5
  %55 = trunc nuw i8 %54 to i1
  br i1 %55, label %57, label %56

56:                                               ; preds = %51
  store i32 0, ptr %48, align 4
  br label %59

57:                                               ; preds = %51
  tail call fastcc void @SlruInternalWritePage(ptr noundef nonnull %0, i32 noundef %25, ptr noundef null)
  br label %63

58:                                               ; preds = %46
  %.val = load ptr, ptr %0, align 8
  tail call fastcc void @SimpleLruWaitIO(ptr %.val, i32 noundef %25)
  br label %63

59:                                               ; preds = %56, %35, %40
  %indvars.iv.next = add nuw nsw i64 %indvars.iv, 1
  %60 = load i32, ptr %4, align 8
  %61 = sext i32 %60 to i64
  %62 = icmp slt i64 %indvars.iv.next, %61
  br i1 %62, label %.lr.ph, label %._crit_edge.loopexit, !llvm.loop !18

63:                                               ; preds = %58, %57
  %64 = load ptr, ptr %12, align 8
  %65 = zext nneg i32 %.2 to i64
  %66 = getelementptr inbounds nuw %union.LWLockPadded, ptr %64, i64 %65
  tail call void @LWLockRelease(ptr noundef %66) #15
  %67 = load ptr, ptr %7, align 8
  %68 = load volatile i64, ptr %8, align 8
  %69 = tail call zeroext i1 %67(i64 noundef %68, i64 noundef %1) #15
  br i1 %69, label %._crit_edge68, label %20

._crit_edge.loopexit:                             ; preds = %59
  %70 = zext nneg i32 %.2 to i64
  br label %._crit_edge

._crit_edge:                                      ; preds = %20, %._crit_edge.loopexit
  %.0.lcssa = phi i64 [ %70, %._crit_edge.loopexit ], [ 0, %20 ]
  %71 = load ptr, ptr %12, align 8
  %72 = getelementptr inbounds nuw %union.LWLockPadded, ptr %71, i64 %.0.lcssa
  tail call void @LWLockRelease(ptr noundef %72) #15
  %73 = call zeroext i1 @SlruScanDirectory(ptr noundef nonnull %0, ptr noundef nonnull @SlruScanDirCbDeleteCutoff, ptr noundef nonnull %3)
  br label %74

74:                                               ; preds = %._crit_edge68, %17, %._crit_edge
  ret void
}